Certificate:
    Data:
        Version: 3 (0x2)
        Serial Number:
            5a:1b:da:a9:91:41:f4:a5:4d:a6:65:51:73:bd:46:5a
        Signature Algorithm: sha256WithRSAEncryption
        Issuer: CN = Microsoft Intune Root Certification Authority
        Validity
            Not Before: Aug 12 00:00:00 2021 GMT
            Not After : Aug 12 00:00:00 2026 GMT
        Subject: CN = Microsoft Intune Root Certification Authority
        Subject Public Key Info:
            Public Key Algorithm: rsaEncryption
                Public-Key: (4096 bit)
                Modulus:
                    00:d0:2f:ad:cc:c1:90:e5:5b:4d:b2:0a:2a:5f:74:
                    05:06:9f:94:3c:b1:22:1c:eb:38:dd:4e:47:42:46:
                    1d:92:64:65:45:54:b0:a0:16:bf:c4:50:b1:b0:de:
                    ae:f1:68:e4:bf:99:30:36:23:e9:28:64:cf:bd:e4:
                    9b:c4:c5:fb:08:cb:e4:bb:23:ba:cb:42:36:0d:b8:
                    96:55:5e:5d:2c:d7:18:f8:85:f7:b0:17:58:e4:f2:
                    75:a3:74:4c:18:7d:99:1b:67:ef:fa:a5:84:ce:b4:
                    78:3f:53:7b:55:b1:e4:fa:de:d8:3a:55:cf:78:76:
                    45:29:3a:63:78:b6:5c:ae:89:ed:aa:6c:c6:dc:d5:
                    59:80:cb:22:13:72:82:05:b5:1b:29:74:4f:6a:5b:
                    53:67:c2:0c:c6:27:3f:d0:29:a2:f6:1f:b2:ed:1b:
                    23:46:c1:78:47:e2:34:b0:65:af:19:35:cc:0a:8c:
                    9e:f0:75:a1:b6:48:dc:4e:82:b6:6c:08:7b:f6:ef:
                    6b:ee:80:d8:86:13:2e:32:63:01:94:0b:21:8e:02:
                    4b:0e:68:71:28:6d:6f:3b:63:dd:ac:fe:ae:3f:e5:
                    b7:81:6b:de:fd:64:27:87:e1:54:a9:46:8d:8b:71:
                    01:47:f5:93:3d:af:4e:55:a4:58:a6:83:c3:ee:a5:
                    c3:a5:da:0d:56:72:e0:63:d4:c0:41:8d:3f:d8:3d:
                    a5:60:6d:95:29:f7:0b:ea:a9:e7:e1:5b:a9:bf:24:
                    64:d8:68:f2:78:62:b9:cc:9e:bc:de:9b:a9:30:18:
                    fe:4a:df:1c:07:58:bf:f9:00:d4:e3:58:3c:7a:f9:
                    be:dd:67:97:f5:00:a7:f6:0d:01:5a:c6:c9:4c:93:
                    80:aa:4c:49:40:04:8f:13:7b:54:33:4c:6f:d0:3a:
                    64:b3:7b:0b:55:73:07:16:1a:8e:05:ef:22:72:05:
                    b9:d8:72:ab:cd:e5:72:56:51:11:63:79:cb:a8:4e:
                    fc:b1:3c:6d:d1:da:58:df:4c:a4:b2:26:1a:d3:90:
                    fd:21:c3:76:71:af:77:27:a5:8d:19:b4:af:34:98:
                    a1:34:03:da:45:1b:9f:7b:43:2d:ea:ff:d4:c9:35:
                    1b:43:8d:e4:2b:af:b0:c2:3f:04:3c:72:f7:de:c9:
                    3e:7a:f0:9f:a1:53:20:1e:37:b3:d5:84:e5:7f:39:
                    79:16:5d:93:43:f5:b6:e4:60:a3:44:e1:e6:df:88:
                    d4:c6:09:e2:57:f6:22:06:8d:97:db:cf:3f:3a:78:
                    3a:84:56:98:07:70:9b:2d:9d:63:7a:55:66:d1:aa:
                    4a:ca:fe:9e:a6:e5:fa:98:35:90:8c:00:df:a0:e0:
                    ec:87:65
                Exponent: 65537 (0x10001)
        X509v3 extensions:
            X509v3 Subject Key Identifier: 
                2B:49:CE:B1:07:25:4C:9D:E6:0A:93:F3:90:B9:30:F7:E6:44:9F:92
            X509v3 Key Usage: critical
                Digital Signature, Certificate Sign, CRL Sign
            X509v3 Basic Constraints: critical
                CA:TRUE, pathlen:1
            X509v3 Extended Key Usage: critical
                TLS Web Client Authentication
            1.3.6.1.4.1.311.21.1: 
                ...
    Signature Algorithm: sha256WithRSAEncryption
    Signature Value:
        6a:e4:3b:58:7e:f3:02:87:24:70:8c:7f:f8:d1:cf:90:e1:be:
        28:32:0c:ec:a8:87:1d:8b:95:b8:4b:fe:2f:f4:b9:29:1a:fe:
        ef:e6:f6:e8:62:d1:45:d7:61:7f:58:d7:9b:69:45:48:d9:0e:
        ab:50:02:3a:67:15:e3:cd:73:17:b7:fd:14:69:e6:4b:aa:54:
        76:8c:c8:e1:d2:86:34:d3:27:a6:03:84:a8:65:64:fd:fb:a9:
        20:6e:5a:ff:b1:d9:1b:14:ac:fc:d5:76:91:72:96:32:56:c8:
        9d:72:ae:e0:49:aa:02:76:b2:ad:e5:b2:46:fc:70:ef:78:7e:
        17:1c:d9:2b:53:b8:ef:5a:07:ed:18:63:67:1e:e4:e1:ed:3a:
        08:f7:f4:49:f1:f8:f4:42:a7:07:88:a1:d8:40:29:d6:6e:4d:
        50:17:d4:ce:2a:78:12:43:f3:b1:a0:ff:b6:f8:55:f6:92:68:
        ce:85:af:3a:e1:f5:5b:b2:94:23:36:e7:c5:f1:d4:26:06:83:
        34:d8:24:27:2f:09:83:87:03:be:27:4b:75:e2:81:a9:6c:2a:
        89:db:75:51:d4:11:a7:3e:e0:3e:e2:3f:7d:c9:4a:55:75:c2:
        5c:58:3c:f2:6a:6b:28:81:6a:6d:b5:62:d4:87:99:d2:4a:57:
        7a:70:90:56:ef:95:7d:be:a4:d8:a8:5f:ce:84:e3:c6:1a:37:
        3e:1f:6a:ad:ef:0a:5e:31:1e:a3:1f:55:f3:8e:1b:c4:0b:88:
        e9:cd:94:7b:01:2a:c7:df:0f:8d:b4:08:a8:b6:48:96:8a:11:
        33:c9:9c:e2:c6:eb:5d:ba:e6:38:93:e1:8a:f5:99:47:96:1b:
        eb:50:4e:ab:85:78:57:53:4d:21:9f:4e:8c:97:13:9f:08:30:
        b8:48:d7:d8:50:b5:ff:f6:1d:4f:5a:64:af:ef:26:c8:d6:3d:
        82:82:b9:c3:c2:5f:04:19:03:62:a4:67:f4:53:f0:7b:12:3c:
        f7:ad:dc:6c:8f:de:02:f4:9f:37:da:72:88:49:ed:12:b0:0a:
        51:3c:d9:ec:57:82:21:8a:fd:40:05:aa:f1:0b:f6:9c:1b:2c:
        9b:57:e0:7c:7f:f8:e8:53:e3:34:3d:09:2a:69:2a:34:81:0c:
        84:51:f2:05:7a:1b:61:d8:e6:05:8a:5e:af:4a:fb:f0:ef:fa:
        6d:40:3c:f5:ac:47:59:13:b2:ac:be:b4:04:0f:47:19:4a:ed:
        b0:ec:5e:de:46:6b:07:02:3f:e1:4c:d2:f2:70:77:93:be:64:
        f0:77:c7:95:4b:1b:93:8b:bf:8f:1c:09:15:31:7f:56:a5:31:
        04:9f:b0:9c:ff:af:62:f8
-----BEGIN CERTIFICATE-----
MIIFaTCCA1GgAwIBAgIQWhvaqZFB9KVNpmVRc71GWjANBgkqhkiG9w0BAQsFADA4
MTYwNAYDVQQDEy1NaWNyb3NvZnQgSW50dW5lIFJvb3QgQ2VydGlmaWNhdGlvbiBB
dXRob3JpdHkwHhcNMjEwODEyMDAwMDAwWhcNMjYwODEyMDAwMDAwWjA4MTYwNAYD
VQQDEy1NaWNyb3NvZnQgSW50dW5lIFJvb3QgQ2VydGlmaWNhdGlvbiBBdXRob3Jp
dHkwggIiMA0GCSqGSIb3DQEBAQUAA4ICDwAwggIKAoICAQDQL63MwZDlW02yCipf
dAUGn5Q8sSIc6zjdTkdCRh2SZGVFVLCgFr/EULGw3q7xaOS/mTA2I+koZM+95JvE
xfsIy+S7I7rLQjYNuJZVXl0s1xj4hfewF1jk8nWjdEwYfZkbZ+/6pYTOtHg/U3tV
seT63tg6Vc94dkUpOmN4tlyuie2qbMbc1VmAyyITcoIFtRspdE9qW1NnwgzGJz/Q
KaL2H7LtGyNGwXhH4jSwZa8ZNcwKjJ7wdaG2SNxOgrZsCHv272vugNiGEy4yYwGU
CyGOAksOaHEobW87Y92s/q4/5beBa979ZCeH4VSpRo2LcQFH9ZM9r05VpFimg8Pu
pcOl2g1WcuBj1MBBjT/YPaVgbZUp9wvqqefhW6m/JGTYaPJ4YrnMnrzem6kwGP5K
3xwHWL/5ANTjWDx6+b7dZ5f1AKf2DQFaxslMk4CqTElABI8Te1QzTG/QOmSzewtV
cwcWGo4F7yJyBbnYcqvN5XJWURFjecuoTvyxPG3R2ljfTKSyJhrTkP0hw3Zxr3cn
pY0ZtK80mKE0A9pFG597Qy3q/9TJNRtDjeQrr7DCPwQ8cvfeyT568J+hUyAeN7PV
hOV/OXkWXZND9bbkYKNE4ebfiNTGCeJX9iIGjZfbzz86eDqEVpgHcJstnWN6VWbR
qkrK/p6m5fqYNZCMAN+g4OyHZQIDAQABo28wbTAdBgNVHQ4EFgQUK0nOsQclTJ3m
CpPzkLkw9+ZEn5IwDgYDVR0PAQH/BAQDAgGGMBIGA1UdEwEB/wQIMAYBAf8CAQEw
FgYDVR0lAQH/BAwwCgYIKwYBBQUHAwIwEAYJKwYBBAGCNxUBBAMCAQAwDQYJKoZI
hvcNAQELBQADggIBAGrkO1h+8wKHJHCMf/jRz5DhvigyDOyohx2LlbhL/i/0uSka
/u/m9uhi0UXXYX9Y15tpRUjZDqtQAjpnFePNcxe3/RRp5kuqVHaMyOHShjTTJ6YD
hKhlZP37qSBuWv+x2RsUrPzVdpFyljJWyJ1yruBJqgJ2sq3lskb8cO94fhcc2StT
uO9aB+0YY2ce5OHtOgj39Enx+PRCpweIodhAKdZuTVAX1M4qeBJD87Gg/7b4VfaS
aM6Frzrh9VuylCM258Xx1CYGgzTYJCcvCYOHA74nS3XigalsKonbdVHUEac+4D7i
P33JSlV1wlxYPPJqayiBam21YtSHmdJKV3pwkFbvlX2+pNioX86E48YaNz4faq3v
Cl4xHqMfVfOOG8QLiOnNlHsBKsffD420CKi2SJaKETPJnOLG61265jiT4Yr1mUeW
G+tQTquFeFdTTSGfToyXE58IMLhI19hQtf/2HU9aZK/vJsjWPYKCucPCXwQZA2Kk
Z/RT8HsSPPet3GyP3gL0nzfacohJ7RKwClE82exXgiGK/UAFqvEL9pwbLJtX4Hx/
+OhT4zQ9CSppKjSBDIRR8gV6G2HY5gWKXq9K+/Dv+m1APPWsR1kTsqy+tAQPRxlK
7bDsXt5GawcCP+FM0vJwd5O+ZPB3x5VLG5OLv48cCRUxf1alMQSfsJz/r2L4
-----END CERTIFICATE-----
Certificate:
    Data:
        Version: 3 (0x2)
        Serial Number:
             (Negative)2d:a1:b4:36:6c:f4:45:79:b1:6d:94:37:d6:75:3c:3b
        Signature Algorithm: sha256WithRSAEncryption
        Issuer: CN = Microsoft Intune Root Certification Authority
        Validity
            Not Before: Aug 12 00:00:00 2021 GMT
            Not After : Aug 12 00:00:00 2024 GMT
        Subject: CN = Microsoft Intune MDM Agent CA
        Subject Public Key Info:
            Public Key Algorithm: rsaEncryption
                Public-Key: (2048 bit)
                Modulus:
                    00:c6:75:92:52:63:88:39:17:a7:c6:e3:57:9b:31:
                    ca:e9:e8:3c:dc:cf:b3:34:04:3a:72:b8:6f:e6:2c:
                    04:71:7b:7c:5c:29:29:eb:e9:0b:36:4f:ba:79:6f:
                    e1:40:cd:6a:41:63:cc:f5:df:0c:ba:8c:61:fe:f6:
                    b3:94:fd:42:3c:bb:13:31:b7:db:40:17:19:86:18:
                    c4:25:72:7b:a9:e1:86:09:a0:03:32:ba:16:62:5b:
                    12:11:ec:60:c3:ad:db:e2:29:a5:86:2b:9a:ed:22:
                    9c:30:4e:88:60:b8:7f:38:ff:7e:7e:a0:49:c3:de:
                    d0:57:61:a3:c8:1a:b3:cb:d1:1c:71:70:10:5a:be:
                    27:2d:92:4a:db:48:76:2f:84:d7:71:da:bb:42:77:
                    58:23:33:df:d7:68:6a:1b:44:dd:9e:97:70:6b:c9:
                    2e:15:fd:98:18:56:ff:c8:be:22:90:d5:2a:46:c4:
                    f7:14:53:05:f3:0d:7c:7d:5d:2c:25:24:89:c6:8b:
                    98:b9:8f:77:a7:c8:75:01:e4:7a:fb:1a:98:a7:89:
                    ef:1f:3d:93:6f:10:97:ae:a9:5a:85:f6:ba:f7:6e:
                    18:05:92:40:a9:bd:c3:14:da:31:a3:29:62:0f:8f:
                    64:b5:8b:47:fb:fe:1b:96:eb:cc:9a:54:db:77:11:
                    ba:69
                Exponent: 65537 (0x10001)
        X509v3 extensions:
            X509v3 Subject Key Identifier: 
                77:6F:15:B1:54:74:03:BE:E2:4B:15:3F:E6:17:AD:FF:AF:95:21:D9
            X509v3 Authority Key Identifier: 
                2B:49:CE:B1:07:25:4C:9D:E6:0A:93:F3:90:B9:30:F7:E6:44:9F:92
            1.3.6.1.4.1.311.21.1: 
                ...
            X509v3 Key Usage: critical
                Digital Signature, Certificate Sign, CRL Sign
            X509v3 Extended Key Usage: critical
                TLS Web Client Authentication
            X509v3 Basic Constraints: critical
                CA:TRUE, pathlen:0
    Signature Algorithm: sha256WithRSAEncryption
    Signature Value:
        bd:13:f6:ab:dc:46:91:e9:d0:25:83:5a:38:52:96:78:10:f5:
        f7:25:e1:c7:3f:25:01:6b:b4:40:f4:bd:bf:3c:d0:2d:e6:b7:
        92:4b:51:ed:74:79:30:5b:e7:e3:82:5b:ae:a0:e4:99:3a:5f:
        9f:27:5a:d2:83:30:c2:6b:73:0a:37:fb:b0:0a:f8:8e:86:cd:
        91:8e:a5:a4:35:eb:04:c0:4b:69:e2:d1:9e:68:bb:41:68:c5:
        33:3f:ad:5d:27:7c:f1:d9:39:7a:bf:5d:59:55:56:0b:be:66:
        53:f4:07:1d:85:9f:01:71:b9:4b:93:d1:e2:b8:0f:95:5f:50:
        65:e0:7a:6f:e7:99:e9:85:14:51:9a:61:8c:3b:a9:5f:41:a7:
        62:1e:d4:99:9f:3c:53:91:8d:a7:88:ac:05:87:8c:1b:32:56:
        04:28:db:4a:98:e5:0c:bd:45:f9:5d:2c:3f:de:b3:04:22:53:
        79:70:78:63:6d:de:72:68:98:ab:4a:25:3a:9b:0a:07:d3:b9:
        0f:33:f0:e7:ee:40:ad:96:20:e1:05:20:f5:6a:17:d2:44:ec:
        fb:88:36:b6:94:71:a1:6e:0a:a9:8d:5c:17:6e:ec:fa:bd:a5:
        56:12:84:61:c7:5d:c5:02:5d:61:f8:86:ba:a4:34:37:df:14:
        00:de:7c:76:25:08:63:51:0c:c0:36:ac:3c:5d:14:af:10:d0:
        48:98:be:0e:e7:c3:02:98:ed:f0:96:3e:ef:63:8e:bc:90:39:
        e9:6b:20:c2:70:ca:3c:79:69:6d:b3:e1:a8:15:7d:e2:f4:81:
        81:53:20:f7:4d:0f:26:13:f1:12:75:36:73:75:6a:b8:bb:3c:
        65:f6:cb:22:9e:98:34:9c:df:17:b1:42:b1:6c:0f:35:0f:e7:
        02:0e:3b:fe:19:47:59:56:11:df:c4:cc:6f:a7:96:1f:38:8a:
        87:55:90:71:e6:76:9f:bf:a3:9a:40:25:c8:85:bd:ec:93:66:
        3f:cd:26:b7:fb:3b:75:87:68:ed:51:5c:0a:5b:a1:cc:ae:a4:
        78:30:d0:26:45:e1:22:14:29:6b:d0:ef:9b:e9:7d:98:d0:b1:
        24:b8:e4:e1:0a:9a:56:ab:bc:b4:c7:b7:35:f1:e5:2b:64:64:
        ae:06:5e:bb:d8:3b:a8:67:82:41:aa:ae:86:b1:55:cd:0c:82:
        f1:38:ac:29:0e:dd:c4:17:61:1a:81:3a:eb:66:92:ec:c3:b2:
        42:3c:ce:38:3f:38:82:66:00:70:16:24:9e:09:06:2a:a8:64:
        e2:32:ff:96:d6:57:bb:c2:6f:d5:95:86:58:42:3c:8e:e3:ad:
        e5:ca:9b:37:0e:c7:dd:ec
-----BEGIN CERTIFICATE-----
MIIEfDCCAmSgAwIBAgIQ0l5LyZMLuoZOkmvIKYrDxTANBgkqhkiG9w0BAQsFADA4
MTYwNAYDVQQDEy1NaWNyb3NvZnQgSW50dW5lIFJvb3QgQ2VydGlmaWNhdGlvbiBB
dXRob3JpdHkwHhcNMjEwODEyMDAwMDAwWhcNMjQwODEyMDAwMDAwWjAoMSYwJAYD
VQQDEx1NaWNyb3NvZnQgSW50dW5lIE1ETSBBZ2VudCBDQTCCASIwDQYJKoZIhvcN
AQEBBQADggEPADCCAQoCggEBAMZ1klJjiDkXp8bjV5sxyunoPNzPszQEOnK4b+Ys
BHF7fFwpKevpCzZPunlv4UDNakFjzPXfDLqMYf72s5T9Qjy7EzG320AXGYYYxCVy
e6nhhgmgAzK6FmJbEhHsYMOt2+IppYYrmu0inDBOiGC4fzj/fn6gScPe0Fdho8ga
s8vRHHFwEFq+Jy2SSttIdi+E13Hau0J3WCMz39doahtE3Z6XcGvJLhX9mBhW/8i+
IpDVKkbE9xRTBfMNfH1dLCUkicaLmLmPd6fIdQHkevsamKeJ7x89k28Ql66pWoX2
uvduGAWSQKm9wxTaMaMpYg+PZLWLR/v+G5brzJpU23cRumkCAwEAAaOBkTCBjjAd
BgNVHQ4EFgQUd28VsVR0A77iSxU/5het/6+VIdkwHwYDVR0jBBgwFoAUK0nOsQcl
TJ3mCpPzkLkw9+ZEn5IwEAYJKwYBBAGCNxUBBAMCAQAwDgYDVR0PAQH/BAQDAgGG
MBYGA1UdJQEB/wQMMAoGCCsGAQUFBwMCMBIGA1UdEwEB/wQIMAYBAf8CAQAwDQYJ
KoZIhvcNAQELBQADggIBAL0T9qvcRpHp0CWDWjhSlngQ9fcl4cc/JQFrtED0vb88
0C3mt5JLUe10eTBb5+OCW66g5Jk6X58nWtKDMMJrcwo3+7AK+I6GzZGOpaQ16wTA
S2ni0Z5ou0FoxTM/rV0nfPHZOXq/XVlVVgu+ZlP0Bx2FnwFxuUuT0eK4D5VfUGXg
em/nmemFFFGaYYw7qV9Bp2Ie1JmfPFORjaeIrAWHjBsyVgQo20qY5Qy9RfldLD/e
swQiU3lweGNt3nJomKtKJTqbCgfTuQ8z8OfuQK2WIOEFIPVqF9JE7PuINraUcaFu
CqmNXBdu7Pq9pVYShGHHXcUCXWH4hrqkNDffFADefHYlCGNRDMA2rDxdFK8Q0EiY
vg7nwwKY7fCWPu9jjryQOelrIMJwyjx5aW2z4agVfeL0gYFTIPdNDyYT8RJ1NnN1
ari7PGX2yyKemDSc3xexQrFsDzUP5wIOO/4ZR1lWEd/EzG+nlh84iodVkHHmdp+/
o5pAJciFveyTZj/NJrf7O3WHaO1RXApbocyupHgw0CZF4SIUKWvQ75vpfZjQsSS4
5OEKmlarvLTHtzXx5StkZK4GXrvYO6hngkGqroaxVc0MgvE4rCkO3cQXYRqBOutm
kuzDskI8zjg/OIJmAHAWJJ4JBiqoZOIy/5bWV7vCb9WVhlhCPI7jreXKmzcOx93s
-----END CERTIFICATE-----
Certificate:
    Data:
        Version: 3 (0x2)
        Serial Number:
            23:b5:fa:21:1d:6a:59:a7:4d:15:dd:0c:3e:c2:6c:2e
        Signature Algorithm: sha256WithRSAEncryption
        Issuer: CN = Microsoft Intune Root Certification Authority
        Validity
            Not Before: Aug 12 00:00:00 2021 GMT
            Not After : Aug 12 00:00:00 2024 GMT
        Subject: CN = Microsoft Intune MDM Device CA
        Subject Public Key Info:
            Public Key Algorithm: rsaEncryption
                Public-Key: (2048 bit)
                Modulus:
                    00:d1:f3:62:cc:0f:79:0a:3c:ca:01:94:b7:18:59:
                    47:6c:92:52:5f:09:59:ef:4a:8b:35:a4:23:6a:51:
                    55:81:c4:88:0e:21:77:7c:ca:91:bb:5d:8d:58:50:
                    4e:38:1a:30:ea:3c:14:a1:75:05:89:98:d0:c6:21:
                    fa:9f:2d:6a:34:82:b9:da:8d:64:0c:79:f5:c4:6b:
                    e0:80:a4:a0:ff:1a:fa:33:00:81:df:60:44:e0:c2:
                    2f:98:33:1d:c4:c8:d5:ae:a5:f5:d8:e2:77:ff:7f:
                    3d:93:e3:19:5d:1e:eb:bd:89:9c:38:4f:2d:be:47:
                    3d:55:83:6d:98:11:86:c2:5d:28:72:3a:ab:05:1b:
                    ba:c7:00:d3:ec:f5:79:23:5d:6a:5c:5a:19:cd:89:
                    10:24:ab:df:7d:62:e2:02:d1:a2:a4:0f:d5:26:69:
                    37:2c:77:4e:79:72:63:ad:d0:d9:00:7a:17:c2:26:
                    20:75:b7:da:6a:75:37:1e:a8:a4:71:e1:5c:72:49:
                    24:06:fe:95:b0:4c:e2:f6:03:d5:7f:79:1a:f1:e6:
                    16:5a:30:36:64:de:45:5c:3d:4f:e8:1e:5b:98:d7:
                    1c:d6:09:8f:4f:88:fb:97:e7:85:83:94:51:66:e0:
                    1e:f3:92:54:62:7c:fc:34:1a:f3:f5:61:7f:76:b3:
                    68:75
                Exponent: 65537 (0x10001)
        X509v3 extensions:
            X509v3 Subject Key Identifier: 
                67:6B:82:4B:F7:BC:43:AA:57:4A:99:CF:5E:DA:D3:EF:04:52:EB:95
            X509v3 Authority Key Identifier: 
                2B:49:CE:B1:07:25:4C:9D:E6:0A:93:F3:90:B9:30:F7:E6:44:9F:92
            1.3.6.1.4.1.311.21.1: 
                ...
            X509v3 Key Usage: critical
                Digital Signature, Certificate Sign, CRL Sign
            X509v3 Extended Key Usage: critical
                TLS Web Client Authentication
            X509v3 Basic Constraints: critical
                CA:TRUE, pathlen:0
    Signature Algorithm: sha256WithRSAEncryption
    Signature Value:
        ce:77:5c:20:44:97:eb:b6:21:38:02:96:e2:40:a7:0e:49:50:
        0a:e6:6c:bd:12:05:ae:00:48:4e:ce:91:46:84:2c:a1:32:91:
        b0:9b:c6:53:cf:af:aa:86:55:66:00:21:fd:87:c0:0c:f6:69:
        ad:c3:75:ff:04:c1:ca:64:d2:fa:0b:f8:fc:5e:51:37:0d:03:
        db:3f:4c:c9:52:22:d4:9c:0c:e0:8d:8b:46:c5:3c:bd:57:15:
        9f:e0:bb:33:54:e3:ba:8c:10:94:b3:7c:ed:ae:2d:b6:82:41:
        18:9c:38:2e:55:c8:44:fb:ac:4f:de:e4:39:8c:b2:e3:60:23:
        22:73:34:fd:52:24:81:c8:a0:fe:21:18:13:95:aa:45:d1:b0:
        ca:f0:5b:9f:35:7e:6c:da:1f:5a:35:1f:12:df:d9:00:19:08:
        a7:d5:c5:90:98:79:ae:ff:5e:f7:41:80:46:b9:2f:97:ca:e2:
        65:ff:65:fd:62:24:03:b8:f6:94:34:35:ab:67:79:1c:c0:74:
        0b:b1:51:7e:cf:cb:a9:d8:f7:d8:50:63:7e:28:1d:45:93:39:
        71:c8:b9:29:1b:95:fb:a1:e6:ec:63:49:9c:e1:6e:bd:69:17:
        58:c3:a0:f4:1a:7b:6d:6c:96:6f:8c:58:4c:02:3c:9a:66:dc:
        09:56:60:81:a2:03:3b:6f:ba:15:e9:9b:6b:1c:40:6b:53:11:
        1c:30:f4:16:6e:20:4f:08:d9:7a:6c:4f:0f:b0:a5:55:a2:22:
        a6:22:08:de:f3:45:a6:e5:bc:16:c3:b5:c2:50:81:72:23:f7:
        de:cb:34:d1:64:43:9f:f0:c4:12:9a:90:7d:09:fb:c8:4b:0d:
        18:e5:11:0a:1a:cb:e0:9a:ed:3a:78:82:35:8c:0e:fc:1c:7e:
        9f:5c:eb:3e:2f:fe:3e:cd:5c:44:76:3b:13:af:21:37:88:44:
        8b:90:44:38:0e:8e:14:a7:d8:83:42:bf:a4:ff:94:dc:7a:59:
        76:18:b8:d7:c3:a1:1e:0a:59:01:1b:ae:3e:f7:b8:13:e4:f7:
        c8:5e:cb:2c:2a:0a:ec:1b:09:2b:cb:ae:ed:91:6a:e2:bb:dd:
        10:a2:7f:38:4f:7b:93:80:ad:c0:a8:ef:30:be:a6:84:21:b2:
        0b:1e:c8:87:0c:58:ec:88:d9:ed:9a:bd:1d:3c:c6:4c:5d:2f:
        a9:35:5c:ae:e0:58:1a:44:48:cd:94:41:a5:31:48:14:58:19:
        a8:33:8d:b4:b2:60:f3:57:32:c3:e3:ca:81:27:b8:6b:f2:cb:
        8b:e6:f5:d0:2f:45:52:93:12:5e:b3:61:bc:0a:5e:39:77:91:
        20:0a:42:68:9e:f9:1f:65
-----BEGIN CERTIFICATE-----
MIIEfTCCAmWgAwIBAgIQI7X6IR1qWadNFd0MPsJsLjANBgkqhkiG9w0BAQsFADA4
MTYwNAYDVQQDEy1NaWNyb3NvZnQgSW50dW5lIFJvb3QgQ2VydGlmaWNhdGlvbiBB
dXRob3JpdHkwHhcNMjEwODEyMDAwMDAwWhcNMjQwODEyMDAwMDAwWjApMScwJQYD
VQQDEx5NaWNyb3NvZnQgSW50dW5lIE1ETSBEZXZpY2UgQ0EwggEiMA0GCSqGSIb3
DQEBAQUAA4IBDwAwggEKAoIBAQDR82LMD3kKPMoBlLcYWUdsklJfCVnvSos1pCNq
UVWBxIgOIXd8ypG7XY1YUE44GjDqPBShdQWJmNDGIfqfLWo0grnajWQMefXEa+CA
pKD/GvozAIHfYETgwi+YMx3EyNWupfXY4nf/fz2T4xldHuu9iZw4Ty2+Rz1Vg22Y
EYbCXShyOqsFG7rHANPs9XkjXWpcWhnNiRAkq999YuIC0aKkD9UmaTcsd055cmOt
0NkAehfCJiB1t9pqdTceqKRx4VxySSQG/pWwTOL2A9V/eRrx5hZaMDZk3kVcPU/o
HluY1xzWCY9PiPuX54WDlFFm4B7zklRifPw0GvP1YX92s2h1AgMBAAGjgZEwgY4w
HQYDVR0OBBYEFGdrgkv3vEOqV0qZz17a0+8EUuuVMB8GA1UdIwQYMBaAFCtJzrEH
JUyd5gqT85C5MPfmRJ+SMBAGCSsGAQQBgjcVAQQDAgEAMA4GA1UdDwEB/wQEAwIB
hjAWBgNVHSUBAf8EDDAKBggrBgEFBQcDAjASBgNVHRMBAf8ECDAGAQH/AgEAMA0G
CSqGSIb3DQEBCwUAA4ICAQDOd1wgRJfrtiE4ApbiQKcOSVAK5my9EgWuAEhOzpFG
hCyhMpGwm8ZTz6+qhlVmACH9h8AM9mmtw3X/BMHKZNL6C/j8XlE3DQPbP0zJUiLU
nAzgjYtGxTy9VxWf4LszVOO6jBCUs3ztri22gkEYnDguVchE+6xP3uQ5jLLjYCMi
czT9UiSByKD+IRgTlapF0bDK8FufNX5s2h9aNR8S39kAGQin1cWQmHmu/173QYBG
uS+XyuJl/2X9YiQDuPaUNDWrZ3kcwHQLsVF+z8up2PfYUGN+KB1FkzlxyLkpG5X7
oebsY0mc4W69aRdYw6D0GnttbJZvjFhMAjyaZtwJVmCBogM7b7oV6ZtrHEBrUxEc
MPQWbiBPCNl6bE8PsKVVoiKmIgje80Wm5bwWw7XCUIFyI/feyzTRZEOf8MQSmpB9
CfvISw0Y5REKGsvgmu06eII1jA78HH6fXOs+L/4+zVxEdjsTryE3iESLkEQ4Do4U
p9iDQr+k/5Tcell2GLjXw6EeClkBG64+97gT5PfIXsssKgrsGwkry67tkWriu90Q
on84T3uTgK3AqO8wvqaEIbILHsiHDFjsiNntmr0dPMZMXS+pNVyu4FgaREjNlEGl
MUgUWBmoM420smDzVzLD48qBJ7hr8suL5vXQL0VSkxJes2G8Cl45d5EgCkJonvkf
ZQ==
-----END CERTIFICATE-----
